; Function Attrs: nounwind uwtable
define internal range(i32 -2147483648, 2) i32 @apply_stash(i32 noundef %0, ptr noundef %1, ptr noundef %2, ptr readnone captures(none) %3) #0 {
  %5 = alloca i32, align 4
  %6 = alloca i32, align 4
  %7 = alloca %struct.stash_info, align 8
  %8 = alloca [3 x %struct.option], align 16
  call void @llvm.lifetime.start.p0(i64 4, ptr nonnull %5) #15
  store i32 0, ptr %5, align 4, !tbaa !42
  call void @llvm.lifetime.start.p0(i64 4, ptr nonnull %6) #15
  store i32 0, ptr %6, align 4, !tbaa !42
  call void @llvm.lifetime.start.p0(i64 320, ptr nonnull %7) #15
  call void @llvm.memcpy.p0.p0.i64(ptr noundef nonnull align 8 dereferenceable(320) %7, ptr noundef nonnull align 8 dereferenceable(320) @__const.do_push_stash.info, i64 320, i1 false)
  call void @llvm.lifetime.start.p0(i64 264, ptr nonnull %8) #15
  store i32 8, ptr %8, align 16, !tbaa !8
  %9 = getelementptr inbounds nuw i8, ptr %8, i64 4
  store i32 113, ptr %9, align 4, !tbaa !13
  %10 = getelementptr inbounds nuw i8, ptr %8, i64 8
  store ptr @.str.12, ptr %10, align 8, !tbaa !14
  %11 = getelementptr inbounds nuw i8, ptr %8, i64 16
  store ptr %5, ptr %11, align 16, !tbaa !15
  %12 = getelementptr inbounds nuw i8, ptr %8, i64 24
  store ptr null, ptr %12, align 8, !tbaa !43
  %13 = getelementptr inbounds nuw i8, ptr %8, i64 32
  store ptr @.str.13, ptr %13, align 16, !tbaa !44
  %14 = getelementptr inbounds nuw i8, ptr %8, i64 40
  store i32 2, ptr %14, align 8, !tbaa !17
  %15 = getelementptr inbounds nuw i8, ptr %8, i64 44
  %16 = getelementptr inbounds nuw i8, ptr %8, i64 88
  call void @llvm.memset.p0.i64(ptr noundef nonnull align 4 dereferenceable(44) %15, i8 0, i64 44, i1 false)
  store i32 9, ptr %16, align 8, !tbaa !8
  %17 = getelementptr inbounds nuw i8, ptr %8, i64 92
  store i32 0, ptr %17, align 4, !tbaa !13
  %18 = getelementptr inbounds nuw i8, ptr %8, i64 96
  store ptr @.str.14, ptr %18, align 16, !tbaa !14
  %19 = getelementptr inbounds nuw i8, ptr %8, i64 104
  store ptr %6, ptr %19, align 8, !tbaa !15
  %20 = getelementptr inbounds nuw i8, ptr %8, i64 112
  store ptr null, ptr %20, align 16, !tbaa !43
  %21 = getelementptr inbounds nuw i8, ptr %8, i64 120
  store ptr @.str.15, ptr %21, align 8, !tbaa !44
  %22 = getelementptr inbounds nuw i8, ptr %8, i64 128
  store i32 2, ptr %22, align 16, !tbaa !17
  %23 = getelementptr inbounds nuw i8, ptr %8, i64 132
  store i32 0, ptr %23, align 4
  %24 = getelementptr inbounds nuw i8, ptr %8, i64 136
  store ptr null, ptr %24, align 8, !tbaa !45
  %25 = getelementptr inbounds nuw i8, ptr %8, i64 144
  store i64 1, ptr %25, align 16, !tbaa !46
  %26 = getelementptr inbounds nuw i8, ptr %8, i64 152
  call void @llvm.memset.p0.i64(ptr noundef nonnull align 8 dereferenceable(112) %26, i8 0, i64 112, i1 false)
  %27 = call i32 @parse_options(i32 noundef %0, ptr noundef %1, ptr noundef %2, ptr noundef nonnull %8, ptr noundef nonnull @git_stash_apply_usage, i32 noundef 0) #15
  %28 = call fastcc i32 @get_stash_info(ptr noundef %7, i32 noundef %27, ptr noundef %1)
  %.not = icmp eq i32 %28, 0
  br i1 %.not, label %29, label %33

29:                                               ; preds = %4
  %30 = load i32, ptr %6, align 4, !tbaa !42
  %31 = load i32, ptr %5, align 4, !tbaa !42
  %32 = call fastcc i32 @do_apply_stash(ptr noundef %2, ptr noundef %7, i32 noundef %30, i32 noundef %31)
  br label %33

33:                                               ; preds = %4, %29
  %.0 = phi i32 [ -1, %4 ], [ %32, %29 ]
  %34 = getelementptr inbounds nuw i8, ptr %7, i64 288
  call void @strbuf_release(ptr noundef nonnull %34) #15
  call void @llvm.lifetime.end.p0(i64 264, ptr nonnull %8) #15
  call void @llvm.lifetime.end.p0(i64 320, ptr nonnull %7) #15
  call void @llvm.lifetime.end.p0(i64 4, ptr nonnull %6) #15
  call void @llvm.lifetime.end.p0(i64 4, ptr nonnull %5) #15
  ret i32 %.0
}